target datalayout = "e-m:e-p270:32:32-p271:32:32-p272:64:64-i64:64-i128:128-f80:128-n8:16:32:64-S128"
target triple = "x86_64-pc-linux-gnu"

%struct.btLCP = type { i32, i32, i32, i32, i32, ptr, ptr, ptr, ptr, ptr, ptr, ptr, ptr, ptr, ptr, ptr, ptr, ptr, ptr, ptr }

; Function Attrs: mustprogress nounwind uwtable
define dso_local void @_ZN5btLCP24pN_plusequals_s_times_qNEPffS0_(ptr noundef nonnull align 8 dereferenceable(144) %0, ptr noundef %1, float noundef %2, ptr noundef %3) #1 align 2 {
  %5 = alloca ptr, align 8
  %6 = alloca ptr, align 8
  %7 = alloca float, align 4
  %8 = alloca ptr, align 8
  %9 = alloca i32, align 4
  %10 = alloca ptr, align 8
  %11 = alloca ptr, align 8
  %12 = alloca i32, align 4
  %13 = alloca i32, align 4
  store ptr %0, ptr %5, align 8, !tbaa !41
  store ptr %1, ptr %6, align 8, !tbaa !12
  store float %2, ptr %7, align 4, !tbaa !14
  store ptr %3, ptr %8, align 8, !tbaa !12
  %14 = load ptr, ptr %5, align 8
  call void @llvm.lifetime.start.p0(i64 4, ptr %9) #9
  %15 = getelementptr inbounds nuw %struct.btLCP, ptr %14, i32 0, i32 3
  %16 = load i32, ptr %15, align 4, !tbaa !53
  store i32 %16, ptr %9, align 4, !tbaa !9
  call void @llvm.lifetime.start.p0(i64 8, ptr %10) #9
  %17 = load ptr, ptr %6, align 8, !tbaa !12
  %18 = load i32, ptr %9, align 4, !tbaa !9
  %19 = sext i32 %18 to i64
  %20 = getelementptr inbounds float, ptr %17, i64 %19
  store ptr %20, ptr %10, align 8, !tbaa !12
  call void @llvm.lifetime.start.p0(i64 8, ptr %11) #9
  %21 = load ptr, ptr %8, align 8, !tbaa !12
  %22 = load i32, ptr %9, align 4, !tbaa !9
  %23 = sext i32 %22 to i64
  %24 = getelementptr inbounds float, ptr %21, i64 %23
  store ptr %24, ptr %11, align 8, !tbaa !12
  call void @llvm.lifetime.start.p0(i64 4, ptr %12) #9
  %25 = getelementptr inbounds nuw %struct.btLCP, ptr %14, i32 0, i32 4
  %26 = load i32, ptr %25, align 8, !tbaa !54
  store i32 %26, ptr %12, align 4, !tbaa !9
  call void @llvm.lifetime.start.p0(i64 4, ptr %13) #9
  store i32 0, ptr %13, align 4, !tbaa !9
  br label %27

27:                                               ; preds = %45, %4
  %28 = load i32, ptr %13, align 4, !tbaa !9
  %29 = load i32, ptr %12, align 4, !tbaa !9
  %30 = icmp slt i32 %28, %29
  br i1 %30, label %32, label %31

31:                                               ; preds = %27
  call void @llvm.lifetime.end.p0(i64 4, ptr %13) #9
  br label %48

32:                                               ; preds = %27
  %33 = load float, ptr %7, align 4, !tbaa !14
  %34 = load ptr, ptr %11, align 8, !tbaa !12
  %35 = load i32, ptr %13, align 4, !tbaa !9
  %36 = sext i32 %35 to i64
  %37 = getelementptr inbounds float, ptr %34, i64 %36
  %38 = load float, ptr %37, align 4, !tbaa !14
  %39 = load ptr, ptr %10, align 8, !tbaa !12
  %40 = load i32, ptr %13, align 4, !tbaa !9
  %41 = sext i32 %40 to i64
  %42 = getelementptr inbounds float, ptr %39, i64 %41
  %43 = load float, ptr %42, align 4, !tbaa !14
  %44 = call float @llvm.fmuladd.f32(float %33, float %38, float %43)
  store float %44, ptr %42, align 4, !tbaa !14
  br label %45

45:                                               ; preds = %32
  %46 = load i32, ptr %13, align 4, !tbaa !9
  %47 = add nsw i32 %46, 1
  store i32 %47, ptr %13, align 4, !tbaa !9
  br label %27, !llvm.loop !113

48:                                               ; preds = %31
  call void @llvm.lifetime.end.p0(i64 4, ptr %12) #9
  call void @llvm.lifetime.end.p0(i64 8, ptr %11) #9
  call void @llvm.lifetime.end.p0(i64 8, ptr %10) #9
  call void @llvm.lifetime.end.p0(i64 4, ptr %9) #9
  ret void
}