; Function Attrs: mustprogress nofree norecurse nosync nounwind memory(argmem: readwrite) uwtable
define dso_local void @_ZN5btLCP24pN_plusequals_s_times_qNEPffS0_(ptr noundef nonnull readonly align 8 captures(none) dereferenceable(144) %0, ptr noundef captures(none) %1, float noundef %2, ptr noundef readonly captures(none) %3) local_unnamed_addr #0 align 2 {
  %5 = getelementptr inbounds nuw i8, ptr %0, i64 12
  %6 = load i32, ptr %5, align 4, !tbaa !41
  %7 = sext i32 %6 to i64
  %8 = getelementptr inbounds float, ptr %1, i64 %7
  %9 = getelementptr inbounds float, ptr %3, i64 %7
  %10 = getelementptr inbounds nuw i8, ptr %0, i64 16
  %11 = load i32, ptr %10, align 8, !tbaa !42
  %12 = icmp sgt i32 %11, 0
  br i1 %12, label %.lr.ph.preheader, label %._crit_edge

.lr.ph.preheader:                                 ; preds = %4
  %wide.trip.count = zext nneg i32 %11 to i64
  br label %.lr.ph

._crit_edge:                                      ; preds = %.lr.ph, %4
  ret void

.lr.ph:                                           ; preds = %.lr.ph.preheader, %.lr.ph
  %indvars.iv = phi i64 [ 0, %.lr.ph.preheader ], [ %indvars.iv.next, %.lr.ph ]
  %13 = getelementptr inbounds nuw float, ptr %9, i64 %indvars.iv
  %14 = load float, ptr %13, align 4, !tbaa !4
  %15 = getelementptr inbounds nuw float, ptr %8, i64 %indvars.iv
  %16 = load float, ptr %15, align 4, !tbaa !4
  %17 = tail call float @llvm.fmuladd.f32(float %2, float %14, float %16)
  store float %17, ptr %15, align 4, !tbaa !4
  %indvars.iv.next = add nuw nsw i64 %indvars.iv, 1
  %exitcond.not = icmp eq i64 %indvars.iv.next, %wide.trip.count
  br i1 %exitcond.not, label %._crit_edge, label %.lr.ph, !llvm.loop !101
}